; Function Attrs: mustprogress nofree norecurse nosync nounwind sspstrong willreturn memory(read, inaccessiblemem: none) uwtable
define hidden ptr @rb_RSTRING_PTR(i64 noundef %0) local_unnamed_addr #4 {
  %2 = inttoptr i64 %0 to ptr
  %3 = load i64, ptr %2, align 8, !tbaa !11, !noalias !119
  %4 = and i64 %3, 8192
  %.not.i.i = icmp eq i64 %4, 0
  %5 = getelementptr inbounds nuw i8, ptr %2, i64 24
  br i1 %.not.i.i, label %RSTRING_PTR.exit, label %6

6:                                                ; preds = %1
  %.sroa.2.0.copyload.i = load ptr, ptr %5, align 8
  br label %RSTRING_PTR.exit

RSTRING_PTR.exit:                                 ; preds = %1, %6
  %.sroa.2.0.i = phi ptr [ %.sroa.2.0.copyload.i, %6 ], [ %5, %1 ]
  ret ptr %.sroa.2.0.i
}